; Function Attrs: nounwind uwtable
define void @Abc_NodeSuperChoiceCollect2_rec(ptr noundef %0, ptr noundef %1) local_unnamed_addr #0 {
  %3 = getelementptr inbounds nuw i8, ptr %0, i64 20
  %4 = load i32, ptr %3, align 4
  %5 = and i32 %4, 64
  %.not = icmp eq i32 %5, 0
  br i1 %.not, label %6, label %51

6:                                                ; preds = %2
  %7 = or disjoint i32 %4, 64
  store i32 %7, ptr %3, align 4
  %.val = load ptr, ptr %0, align 8, !tbaa !64
  %8 = getelementptr i8, ptr %0, i64 32
  %.val8 = load ptr, ptr %8, align 8, !tbaa !96
  %9 = getelementptr i8, ptr %.val, i64 32
  %.val.val = load ptr, ptr %9, align 8, !tbaa !48
  %.val8.val = load i32, ptr %.val8, align 4, !tbaa !40
  %10 = getelementptr i8, ptr %.val.val, i64 8
  %.val.val.val = load ptr, ptr %10, align 8, !tbaa !26
  %11 = sext i32 %.val8.val to i64
  %12 = getelementptr inbounds ptr, ptr %.val.val.val, i64 %11
  %13 = load ptr, ptr %12, align 8, !tbaa !27
  tail call void @Abc_NodeSuperChoiceCollect2_rec(ptr noundef %13, ptr noundef %1)
  %.val9 = load ptr, ptr %0, align 8, !tbaa !64
  %.val10 = load ptr, ptr %8, align 8, !tbaa !96
  %14 = getelementptr i8, ptr %.val9, i64 32
  %.val9.val = load ptr, ptr %14, align 8, !tbaa !48
  %15 = getelementptr i8, ptr %.val10, i64 4
  %.val10.val = load i32, ptr %15, align 4, !tbaa !40
  %16 = getelementptr i8, ptr %.val9.val, i64 8
  %.val9.val.val = load ptr, ptr %16, align 8, !tbaa !26
  %17 = sext i32 %.val10.val to i64
  %18 = getelementptr inbounds ptr, ptr %.val9.val.val, i64 %17
  %19 = load ptr, ptr %18, align 8, !tbaa !27
  tail call void @Abc_NodeSuperChoiceCollect2_rec(ptr noundef %19, ptr noundef %1)
  %20 = getelementptr inbounds nuw i8, ptr %1, i64 4
  %21 = load i32, ptr %20, align 4, !tbaa !24
  %22 = load i32, ptr %1, align 8, !tbaa !114
  %23 = icmp eq i32 %21, %22
  br i1 %23, label %24, label %.Vec_PtrGrow.exit11_crit_edge.i

.Vec_PtrGrow.exit11_crit_edge.i:                  ; preds = %6
  %.phi.trans.insert.i = getelementptr inbounds nuw i8, ptr %1, i64 8
  %.pre.i = load ptr, ptr %.phi.trans.insert.i, align 8, !tbaa !26
  br label %Vec_PtrPush.exit

24:                                               ; preds = %6
  %25 = icmp slt i32 %21, 16
  br i1 %25, label %26, label %34

26:                                               ; preds = %24
  %27 = getelementptr inbounds nuw i8, ptr %1, i64 8
  %28 = load ptr, ptr %27, align 8, !tbaa !26
  %.not9.i.i = icmp eq ptr %28, null
  br i1 %.not9.i.i, label %31, label %29

29:                                               ; preds = %26
  %30 = tail call dereferenceable_or_null(128) ptr @realloc(ptr noundef nonnull %28, i64 noundef 128) #17
  br label %Vec_PtrGrow.exit.i

31:                                               ; preds = %26
  %32 = tail call noalias dereferenceable_or_null(128) ptr @malloc(i64 noundef 128) #18
  br label %Vec_PtrGrow.exit.i

Vec_PtrGrow.exit.i:                               ; preds = %31, %29
  %33 = phi ptr [ %30, %29 ], [ %32, %31 ]
  store ptr %33, ptr %27, align 8, !tbaa !26
  store i32 16, ptr %1, align 8, !tbaa !114
  br label %Vec_PtrPush.exit

34:                                               ; preds = %24
  %35 = shl nuw nsw i32 %21, 1
  %36 = getelementptr inbounds nuw i8, ptr %1, i64 8
  %37 = load ptr, ptr %36, align 8, !tbaa !26
  %.not9.i10.i = icmp eq ptr %37, null
  %38 = zext nneg i32 %35 to i64
  %39 = shl nuw nsw i64 %38, 3
  br i1 %.not9.i10.i, label %42, label %40

40:                                               ; preds = %34
  %41 = tail call ptr @realloc(ptr noundef nonnull %37, i64 noundef %39) #17
  br label %44

42:                                               ; preds = %34
  %43 = tail call noalias ptr @malloc(i64 noundef %39) #18
  br label %44

44:                                               ; preds = %42, %40
  %45 = phi ptr [ %41, %40 ], [ %43, %42 ]
  store ptr %45, ptr %36, align 8, !tbaa !26
  store i32 %35, ptr %1, align 8, !tbaa !114
  br label %Vec_PtrPush.exit

Vec_PtrPush.exit:                                 ; preds = %.Vec_PtrGrow.exit11_crit_edge.i, %Vec_PtrGrow.exit.i, %44
  %46 = phi ptr [ %.pre.i, %.Vec_PtrGrow.exit11_crit_edge.i ], [ %45, %44 ], [ %33, %Vec_PtrGrow.exit.i ]
  %47 = load i32, ptr %20, align 4, !tbaa !24
  %48 = add nsw i32 %47, 1
  store i32 %48, ptr %20, align 4, !tbaa !24
  %49 = sext i32 %47 to i64
  %50 = getelementptr inbounds ptr, ptr %46, i64 %49
  store ptr %0, ptr %50, align 8, !tbaa !27
  br label %51

51:                                               ; preds = %2, %Vec_PtrPush.exit
  ret void
}